; Function Attrs: nounwind uwtable
define internal void @opj_j2k_write_float_to_int16(ptr noundef readonly captures(none) %0, ptr noundef %1, i32 noundef %2) #3 {
  %.not = icmp eq i32 %2, 0
  br i1 %.not, label %._crit_edge, label %.lr.ph

.lr.ph:                                           ; preds = %3, %.lr.ph
  %.012 = phi ptr [ %7, %.lr.ph ], [ %1, %3 ]
  %.0811 = phi i32 [ %8, %.lr.ph ], [ 0, %3 ]
  %.0910 = phi ptr [ %4, %.lr.ph ], [ %0, %3 ]
  %4 = getelementptr inbounds nuw i8, ptr %.0910, i64 4
  %5 = load float, ptr %.0910, align 4, !tbaa !67
  %6 = fptoui float %5 to i32
  tail call void @opj_write_bytes_LE(ptr noundef %.012, i32 noundef %6, i32 noundef 2) #21
  %7 = getelementptr inbounds nuw i8, ptr %.012, i64 2
  %8 = add nuw i32 %.0811, 1
  %exitcond.not = icmp eq i32 %8, %2
  br i1 %exitcond.not, label %._crit_edge, label %.lr.ph, !llvm.loop !404

._crit_edge:                                      ; preds = %.lr.ph, %3
  ret void
}